target datalayout = "e-m:e-p270:32:32-p271:32:32-p272:64:64-i64:64-i128:128-f80:128-n8:16:32:64-S128"
target triple = "x86_64-pc-linux-gnu"

%"struct.std::__detail::_Hash_node_base" = type { ptr }
%"struct.std::__detail::_Prime_rehash_policy" = type { float, i64 }
%"struct.std::_Rb_tree_header" = type { %"struct.std::_Rb_tree_node_base", i64 }
%"struct.std::_Rb_tree_node_base" = type { i32, ptr, ptr, ptr }
%"struct.PairingHeap<MergeCandidateKey>::Node" = type { %"struct.PairingHeap<MergeCandidateKey>::Link", %"struct.PairingHeap<MergeCandidateKey>::Link", ptr, %struct.MergeCandidateKey }
%"struct.PairingHeap<MergeCandidateKey>::Link" = type { ptr }
%struct.MergeCandidateKey = type { i64, i32 }
%class.SiblingMC = type { %class.MergeCandidate, ptr, ptr, %class.V3ListLinks, %class.V3ListLinks }
%class.MergeCandidate = type { %"struct.PairingHeap<MergeCandidateKey>::Node" }
%class.V3ListLinks = type { ptr, ptr }
%class.V3ErrorCode = type { i8 }
%class.LogicMTask = type { %class.V3GraphVertex, %class.V3List.4, i32, %"struct.std::array.5", i32, i64, %"class.std::unordered_set", %"struct.std::array.8", %"class.std::set", %class.V3List.12, %class.V3List.13 }
%class.V3GraphVertex = type { ptr, %class.V3ListLinks.1, %class.V3List, %class.V3List.2, double, i32, i32, %union.anon.3 }
%class.V3ListLinks.1 = type { ptr, ptr }
%class.V3List = type { ptr, ptr }
%class.V3List.2 = type { ptr, ptr }
%union.anon.3 = type { ptr }
%class.V3List.4 = type { ptr, ptr }
%"struct.std::array.5" = type { [2 x i32] }
%"class.std::unordered_set" = type { %"class.std::_Hashtable" }
%"class.std::_Hashtable" = type { ptr, i64, %"struct.std::__detail::_Hash_node_base", i64, %"struct.std::__detail::_Prime_rehash_policy", ptr }
%"struct.std::array.8" = type { [2 x %class.PairingHeap] }
%class.PairingHeap = type { %"struct.PairingHeap<EdgeKey>::Link" }
%"struct.PairingHeap<EdgeKey>::Link" = type { ptr }
%"class.std::set" = type { %"class.std::_Rb_tree" }
%"class.std::_Rb_tree" = type { %"struct.std::_Rb_tree<LogicMTask *, LogicMTask *, std::_Identity<LogicMTask *>, std::less<LogicMTask *>>::_Rb_tree_impl" }
%"struct.std::_Rb_tree<LogicMTask *, LogicMTask *, std::_Identity<LogicMTask *>, std::less<LogicMTask *>>::_Rb_tree_impl" = type { %"struct.std::_Rb_tree_key_compare", %"struct.std::_Rb_tree_header" }
%"struct.std::_Rb_tree_key_compare" = type { %"struct.std::less" }
%"struct.std::less" = type { i8 }
%class.V3List.12 = type { ptr, ptr }
%class.V3List.13 = type { ptr, ptr }

@.str = private unnamed_addr constant [121 x i8] c"generated/home/dtcxzyw/WorkSpace/Projects/compilers/llvm-opt-benchmark/bench/verilator/verilator/src/V3OrderParallel.cpp\00", align 1
@.str.1 = private unnamed_addr constant [18 x i8] c"Should be ordered\00", align 1
@_ZZN14MergeCandidateC1EbE6serial = linkonce_odr dso_local global i64 0, comdat, align 8

; Function Attrs: mustprogress nounwind uwtable
define linkonce_odr dso_local void @_ZN11PairingHeapI17MergeCandidateKeyE4LinkC2Ev(ptr noundef nonnull align 8 dereferenceable(8) %0) unnamed_addr #5 comdat align 2 {
  %2 = alloca ptr, align 8
  store ptr %0, ptr %2, align 8
  %3 = load ptr, ptr %2, align 8
  %4 = getelementptr inbounds %"struct.PairingHeap<MergeCandidateKey>::Link", ptr %3, i32 0, i32 0
  store ptr null, ptr %4, align 8
  ret void
}

; Function Attrs: mustprogress nounwind uwtable
define linkonce_odr dso_local noundef nonnull align 8 dereferenceable(16) ptr @_ZN9SiblingMC6bLinksEv(ptr noundef nonnull align 8 dereferenceable(88) %0) #5 comdat align 2 {
  %2 = alloca ptr, align 8
  store ptr %0, ptr %2, align 8
  %3 = load ptr, ptr %2, align 8
  %4 = getelementptr inbounds %class.SiblingMC, ptr %3, i32 0, i32 4
  ret ptr %4
}

; Function Attrs: mustprogress nounwind uwtable
define linkonce_odr dso_local noundef nonnull align 8 dereferenceable(16) ptr @_ZN9SiblingMC6aLinksEv(ptr noundef nonnull align 8 dereferenceable(88) %0) #5 comdat align 2 {
  %2 = alloca ptr, align 8
  store ptr %0, ptr %2, align 8
  %3 = load ptr, ptr %2, align 8
  %4 = getelementptr inbounds %class.SiblingMC, ptr %3, i32 0, i32 3
  ret ptr %4
}

; Function Attrs: mustprogress nounwind uwtable
define linkonce_odr dso_local void @_ZN11PairingHeapI17MergeCandidateKeyE4NodeC2Ev(ptr noundef nonnull align 8 dereferenceable(40) %0) unnamed_addr #5 comdat align 2 {
  %2 = alloca ptr, align 8
  store ptr %0, ptr %2, align 8
  %3 = load ptr, ptr %2, align 8
  %4 = getelementptr inbounds %"struct.PairingHeap<MergeCandidateKey>::Node", ptr %3, i32 0, i32 0
  call void @_ZN11PairingHeapI17MergeCandidateKeyE4LinkC2Ev(ptr noundef nonnull align 8 dereferenceable(8) %4) #3
  %5 = getelementptr inbounds %"struct.PairingHeap<MergeCandidateKey>::Node", ptr %3, i32 0, i32 1
  call void @_ZN11PairingHeapI17MergeCandidateKeyE4LinkC2Ev(ptr noundef nonnull align 8 dereferenceable(8) %5) #3
  %6 = getelementptr inbounds %"struct.PairingHeap<MergeCandidateKey>::Node", ptr %3, i32 0, i32 2
  store ptr null, ptr %6, align 8
  ret void
}

; Function Attrs: mustprogress uwtable
define linkonce_odr dso_local void @_ZN6V3ListI9SiblingMCXadL_ZNS0_6bLinksEvEES0_E8linkBackEPKS0_(ptr noundef nonnull align 8 dereferenceable(16) %0, ptr noundef %1) #4 comdat align 2 {
  %3 = alloca ptr, align 8
  %4 = alloca ptr, align 8
  %5 = alloca ptr, align 8
  %6 = alloca ptr, align 8
  %7 = alloca ptr, align 8
  store ptr %0, ptr %5, align 8
  store ptr %1, ptr %6, align 8
  %8 = load ptr, ptr %5, align 8
  %9 = load ptr, ptr %6, align 8
  store ptr %9, ptr %3, align 8
  %10 = load ptr, ptr %3, align 8
  %11 = call noundef nonnull align 8 dereferenceable(16) ptr @_ZN9SiblingMC6bLinksEv(ptr noundef nonnull align 8 dereferenceable(88) %10)
  store ptr %11, ptr %7, align 8
  %12 = load ptr, ptr %7, align 8
  %13 = getelementptr inbounds %class.V3ListLinks, ptr %12, i32 0, i32 0
  store ptr null, ptr %13, align 8
  %14 = getelementptr inbounds %class.V3List.13, ptr %8, i32 0, i32 1
  %15 = load ptr, ptr %14, align 8
  %16 = load ptr, ptr %7, align 8
  %17 = getelementptr inbounds %class.V3ListLinks, ptr %16, i32 0, i32 1
  store ptr %15, ptr %17, align 8
  %18 = getelementptr inbounds %class.V3List.13, ptr %8, i32 0, i32 1
  %19 = load ptr, ptr %18, align 8
  %20 = icmp ne ptr %19, null
  br i1 %20, label %21, label %28

21:                                               ; preds = %2
  %22 = load ptr, ptr %6, align 8
  %23 = getelementptr inbounds %class.V3List.13, ptr %8, i32 0, i32 1
  %24 = load ptr, ptr %23, align 8
  store ptr %24, ptr %4, align 8
  %25 = load ptr, ptr %4, align 8
  %26 = call noundef nonnull align 8 dereferenceable(16) ptr @_ZN9SiblingMC6bLinksEv(ptr noundef nonnull align 8 dereferenceable(88) %25)
  %27 = getelementptr inbounds %class.V3ListLinks, ptr %26, i32 0, i32 0
  store ptr %22, ptr %27, align 8
  br label %28

28:                                               ; preds = %21, %2
  %29 = load ptr, ptr %6, align 8
  %30 = getelementptr inbounds %class.V3List.13, ptr %8, i32 0, i32 1
  store ptr %29, ptr %30, align 8
  %31 = getelementptr inbounds %class.V3List.13, ptr %8, i32 0, i32 0
  %32 = load ptr, ptr %31, align 8
  %33 = icmp ne ptr %32, null
  br i1 %33, label %38, label %34

34:                                               ; preds = %28
  %35 = getelementptr inbounds %class.V3List.13, ptr %8, i32 0, i32 1
  %36 = load ptr, ptr %35, align 8
  %37 = getelementptr inbounds %class.V3List.13, ptr %8, i32 0, i32 0
  store ptr %36, ptr %37, align 8
  br label %38

38:                                               ; preds = %34, %28
  ret void
}

; Function Attrs: mustprogress nounwind uwtable
define linkonce_odr dso_local noundef nonnull align 8 dereferenceable(16) ptr @_ZN10LogicMTask11bSiblingMCsEv(ptr noundef nonnull align 8 dereferenceable(272) %0) #5 comdat align 2 {
  %2 = alloca ptr, align 8
  store ptr %0, ptr %2, align 8
  %3 = load ptr, ptr %2, align 8
  %4 = getelementptr inbounds %class.LogicMTask, ptr %3, i32 0, i32 10
  ret ptr %4
}

; Function Attrs: mustprogress uwtable
define linkonce_odr dso_local void @_ZN6V3ListI9SiblingMCXadL_ZNS0_6aLinksEvEES0_E8linkBackEPKS0_(ptr noundef nonnull align 8 dereferenceable(16) %0, ptr noundef %1) #4 comdat align 2 {
  %3 = alloca ptr, align 8
  %4 = alloca ptr, align 8
  %5 = alloca ptr, align 8
  %6 = alloca ptr, align 8
  %7 = alloca ptr, align 8
  store ptr %0, ptr %5, align 8
  store ptr %1, ptr %6, align 8
  %8 = load ptr, ptr %5, align 8
  %9 = load ptr, ptr %6, align 8
  store ptr %9, ptr %3, align 8
  %10 = load ptr, ptr %3, align 8
  %11 = call noundef nonnull align 8 dereferenceable(16) ptr @_ZN9SiblingMC6aLinksEv(ptr noundef nonnull align 8 dereferenceable(88) %10)
  store ptr %11, ptr %7, align 8
  %12 = load ptr, ptr %7, align 8
  %13 = getelementptr inbounds %class.V3ListLinks, ptr %12, i32 0, i32 0
  store ptr null, ptr %13, align 8
  %14 = getelementptr inbounds %class.V3List.12, ptr %8, i32 0, i32 1
  %15 = load ptr, ptr %14, align 8
  %16 = load ptr, ptr %7, align 8
  %17 = getelementptr inbounds %class.V3ListLinks, ptr %16, i32 0, i32 1
  store ptr %15, ptr %17, align 8
  %18 = getelementptr inbounds %class.V3List.12, ptr %8, i32 0, i32 1
  %19 = load ptr, ptr %18, align 8
  %20 = icmp ne ptr %19, null
  br i1 %20, label %21, label %28

21:                                               ; preds = %2
  %22 = load ptr, ptr %6, align 8
  %23 = getelementptr inbounds %class.V3List.12, ptr %8, i32 0, i32 1
  %24 = load ptr, ptr %23, align 8
  store ptr %24, ptr %4, align 8
  %25 = load ptr, ptr %4, align 8
  %26 = call noundef nonnull align 8 dereferenceable(16) ptr @_ZN9SiblingMC6aLinksEv(ptr noundef nonnull align 8 dereferenceable(88) %25)
  %27 = getelementptr inbounds %class.V3ListLinks, ptr %26, i32 0, i32 0
  store ptr %22, ptr %27, align 8
  br label %28

28:                                               ; preds = %21, %2
  %29 = load ptr, ptr %6, align 8
  %30 = getelementptr inbounds %class.V3List.12, ptr %8, i32 0, i32 1
  store ptr %29, ptr %30, align 8
  %31 = getelementptr inbounds %class.V3List.12, ptr %8, i32 0, i32 0
  %32 = load ptr, ptr %31, align 8
  %33 = icmp ne ptr %32, null
  br i1 %33, label %38, label %34

34:                                               ; preds = %28
  %35 = getelementptr inbounds %class.V3List.12, ptr %8, i32 0, i32 1
  %36 = load ptr, ptr %35, align 8
  %37 = getelementptr inbounds %class.V3List.12, ptr %8, i32 0, i32 0
  store ptr %36, ptr %37, align 8
  br label %38

38:                                               ; preds = %34, %28
  ret void
}

; Function Attrs: mustprogress nounwind uwtable
define linkonce_odr dso_local noundef nonnull align 8 dereferenceable(16) ptr @_ZN10LogicMTask11aSiblingMCsEv(ptr noundef nonnull align 8 dereferenceable(272) %0) #5 comdat align 2 {
  %2 = alloca ptr, align 8
  store ptr %0, ptr %2, align 8
  %3 = load ptr, ptr %2, align 8
  %4 = getelementptr inbounds %class.LogicMTask, ptr %3, i32 0, i32 9
  ret ptr %4
}

; Function Attrs: mustprogress nounwind uwtable
define linkonce_odr dso_local void @_ZN11V3ListLinksI9SiblingMCED2Ev(ptr noundef nonnull align 8 dereferenceable(16) %0) unnamed_addr #5 comdat align 2 {
  %2 = alloca ptr, align 8
  store ptr %0, ptr %2, align 8
  ret void
}

; Function Attrs: mustprogress nounwind uwtable
define linkonce_odr dso_local void @_ZN11V3ErrorCodeC2ENS_2enE(ptr noundef nonnull align 1 dereferenceable(1) %0, i8 noundef zeroext %1) unnamed_addr #5 comdat align 2 {
  %3 = alloca ptr, align 8
  %4 = alloca i8, align 1
  store ptr %0, ptr %3, align 8
  store i8 %1, ptr %4, align 1
  %5 = load ptr, ptr %3, align 8
  %6 = getelementptr inbounds %class.V3ErrorCode, ptr %5, i32 0, i32 0
  %7 = load i8, ptr %4, align 1
  store i8 %7, ptr %6, align 1
  ret void
}

; Function Attrs: mustprogress nounwind uwtable
define linkonce_odr dso_local noundef i32 @_ZNK10LogicMTask2idEv(ptr noundef nonnull align 8 dereferenceable(272) %0) #5 comdat align 2 {
  %2 = alloca ptr, align 8
  store ptr %0, ptr %2, align 8
  %3 = load ptr, ptr %2, align 8
  %4 = getelementptr inbounds %class.LogicMTask, ptr %3, i32 0, i32 4
  %5 = load i32, ptr %4, align 4
  ret i32 %5
}

; Function Attrs: mustprogress nounwind uwtable
define linkonce_odr dso_local void @_ZN11V3ListLinksI9SiblingMCEC2Ev(ptr noundef nonnull align 8 dereferenceable(16) %0) unnamed_addr #5 comdat align 2 {
  %2 = alloca ptr, align 8
  store ptr %0, ptr %2, align 8
  %3 = load ptr, ptr %2, align 8
  %4 = getelementptr inbounds %class.V3ListLinks, ptr %3, i32 0, i32 0
  store ptr null, ptr %4, align 8
  %5 = getelementptr inbounds %class.V3ListLinks, ptr %3, i32 0, i32 1
  store ptr null, ptr %5, align 8
  ret void
}

; Function Attrs: mustprogress nounwind uwtable
define linkonce_odr dso_local void @_ZN14MergeCandidateC2Eb(ptr noundef nonnull align 8 dereferenceable(40) %0, i1 noundef zeroext %1) unnamed_addr #5 comdat align 2 {
  %3 = alloca ptr, align 8
  %4 = alloca i8, align 1
  store ptr %0, ptr %3, align 8
  %5 = zext i1 %1 to i8
  store i8 %5, ptr %4, align 1
  %6 = load ptr, ptr %3, align 8
  call void @_ZN11PairingHeapI17MergeCandidateKeyE4NodeC2Ev(ptr noundef nonnull align 8 dereferenceable(40) %6) #3
  %7 = load i64, ptr @_ZZN14MergeCandidateC1EbE6serial, align 8
  %8 = add i64 %7, 2
  store i64 %8, ptr @_ZZN14MergeCandidateC1EbE6serial, align 8
  %9 = load i64, ptr @_ZZN14MergeCandidateC1EbE6serial, align 8
  %10 = load i8, ptr %4, align 1
  %11 = trunc i8 %10 to i1
  %12 = zext i1 %11 to i64
  %13 = mul i64 %12, 1
  %14 = or i64 %9, %13
  %15 = getelementptr inbounds %"struct.PairingHeap<MergeCandidateKey>::Node", ptr %6, i32 0, i32 3
  %16 = getelementptr inbounds %struct.MergeCandidateKey, ptr %15, i32 0, i32 0
  store i64 %14, ptr %16, align 8
  ret void
}

; Function Attrs: mustprogress uwtable
define dso_local void @_ZN9SiblingMCC2EP10LogicMTaskS1_(ptr noundef nonnull align 8 dereferenceable(88) %0, ptr noundef %1, ptr noundef %2) unnamed_addr #4 align 2 personality ptr @__gxx_personality_v0 {
  %4 = alloca ptr, align 8
  %5 = alloca ptr, align 8
  %6 = alloca ptr, align 8
  %7 = alloca ptr, align 8
  %8 = alloca i32, align 4
  %9 = alloca %class.V3ErrorCode, align 1
  store ptr %0, ptr %4, align 8
  store ptr %1, ptr %5, align 8
  store ptr %2, ptr %6, align 8
  %10 = load ptr, ptr %4, align 8
  call void @_ZN14MergeCandidateC2Eb(ptr noundef nonnull align 8 dereferenceable(40) %10, i1 noundef zeroext true)
  %11 = getelementptr inbounds %class.SiblingMC, ptr %10, i32 0, i32 1
  %12 = load ptr, ptr %5, align 8
  store ptr %12, ptr %11, align 8
  %13 = getelementptr inbounds %class.SiblingMC, ptr %10, i32 0, i32 2
  %14 = load ptr, ptr %6, align 8
  store ptr %14, ptr %13, align 8
  %15 = getelementptr inbounds %class.SiblingMC, ptr %10, i32 0, i32 3
  call void @_ZN11V3ListLinksI9SiblingMCEC2Ev(ptr noundef nonnull align 8 dereferenceable(16) %15) #3
  %16 = getelementptr inbounds %class.SiblingMC, ptr %10, i32 0, i32 4
  call void @_ZN11V3ListLinksI9SiblingMCEC2Ev(ptr noundef nonnull align 8 dereferenceable(16) %16) #3
  br label %17

17:                                               ; preds = %3
  %18 = load ptr, ptr %5, align 8
  %19 = invoke noundef i32 @_ZNK10LogicMTask2idEv(ptr noundef nonnull align 8 dereferenceable(272) %18)
          to label %20 unwind label %39

20:                                               ; preds = %17
  %21 = load ptr, ptr %6, align 8
  %22 = invoke noundef i32 @_ZNK10LogicMTask2idEv(ptr noundef nonnull align 8 dereferenceable(272) %21)
          to label %23 unwind label %39

23:                                               ; preds = %20
  %24 = icmp ugt i32 %19, %22
  %25 = xor i1 %24, true
  %26 = xor i1 %25, true
  %27 = xor i1 %26, true
  br i1 %27, label %28, label %43

28:                                               ; preds = %23
  invoke void @_ZN11V3ErrorCodeC2ENS_2enE(ptr noundef nonnull align 1 dereferenceable(1) %9, i8 noundef zeroext 4)
          to label %29 unwind label %39

29:                                               ; preds = %28
  %30 = getelementptr inbounds %class.V3ErrorCode, ptr %9, i32 0, i32 0
  %31 = load i8, ptr %30, align 1
  %32 = invoke noundef nonnull align 8 dereferenceable(112) ptr @_ZN7V3Error19v3errorPrepFileLineB5cxx11E11V3ErrorCodePKcib(i8 %31, ptr noundef @.str, i32 noundef 666, i1 noundef zeroext true)
          to label %33 unwind label %39

33:                                               ; preds = %29
  %34 = invoke noundef nonnull align 8 dereferenceable(112) ptr @_ZN7V3Error10v3errorStrB5cxx11Ev()
          to label %35 unwind label %39

35:                                               ; preds = %33
  %36 = invoke noundef nonnull align 8 dereferenceable(8) ptr @_ZStlsISt11char_traitsIcEERSt13basic_ostreamIcT_ES5_PKc(ptr noundef nonnull align 8 dereferenceable(8) %34, ptr noundef @.str.1)
          to label %37 unwind label %39

37:                                               ; preds = %35
  invoke void @_Z15v3errorEndFatalRNSt7__cxx1119basic_ostringstreamIcSt11char_traitsIcESaIcEEE(ptr noundef nonnull align 8 dereferenceable(112) %36) #17
          to label %38 unwind label %39

38:                                               ; preds = %37
  unreachable

39:                                               ; preds = %57, %53, %52, %48, %37, %35, %33, %29, %28, %20, %17
  %40 = landingpad { ptr, i32 }
          cleanup
  %41 = extractvalue { ptr, i32 } %40, 0
  store ptr %41, ptr %7, align 8
  %42 = extractvalue { ptr, i32 } %40, 1
  store i32 %42, ptr %8, align 4
  call void @_ZN11V3ListLinksI9SiblingMCED2Ev(ptr noundef nonnull align 8 dereferenceable(16) %16) #3
  call void @_ZN11V3ListLinksI9SiblingMCED2Ev(ptr noundef nonnull align 8 dereferenceable(16) %15) #3
  br label %59

43:                                               ; preds = %23
  br label %44

44:                                               ; preds = %43
  br label %45

45:                                               ; preds = %44
  br label %46

46:                                               ; preds = %45
  br label %47

47:                                               ; preds = %46
  br label %48

48:                                               ; preds = %47
  %49 = getelementptr inbounds %class.SiblingMC, ptr %10, i32 0, i32 1
  %50 = load ptr, ptr %49, align 8
  %51 = invoke noundef nonnull align 8 dereferenceable(16) ptr @_ZN10LogicMTask11aSiblingMCsEv(ptr noundef nonnull align 8 dereferenceable(272) %50)
          to label %52 unwind label %39

52:                                               ; preds = %48
  invoke void @_ZN6V3ListI9SiblingMCXadL_ZNS0_6aLinksEvEES0_E8linkBackEPKS0_(ptr noundef nonnull align 8 dereferenceable(16) %51, ptr noundef %10)
          to label %53 unwind label %39

53:                                               ; preds = %52
  %54 = getelementptr inbounds %class.SiblingMC, ptr %10, i32 0, i32 2
  %55 = load ptr, ptr %54, align 8
  %56 = invoke noundef nonnull align 8 dereferenceable(16) ptr @_ZN10LogicMTask11bSiblingMCsEv(ptr noundef nonnull align 8 dereferenceable(272) %55)
          to label %57 unwind label %39

57:                                               ; preds = %53
  invoke void @_ZN6V3ListI9SiblingMCXadL_ZNS0_6bLinksEvEES0_E8linkBackEPKS0_(ptr noundef nonnull align 8 dereferenceable(16) %56, ptr noundef %10)
          to label %58 unwind label %39

58:                                               ; preds = %57
  ret void

59:                                               ; preds = %39
  %60 = load ptr, ptr %7, align 8
  %61 = load i32, ptr %8, align 4
  %62 = insertvalue { ptr, i32 } poison, ptr %60, 0
  %63 = insertvalue { ptr, i32 } %62, i32 %61, 1
  resume { ptr, i32 } %63
}