; Function Attrs: mustprogress uwtable
define dso_local void @_ZN9SiblingMCC2EP10LogicMTaskS1_(ptr noundef nonnull align 8 dereferenceable(88) %0, ptr noundef %1, ptr noundef %2) unnamed_addr #4 align 2 personality ptr @__gxx_personality_v0 {
  tail call void @llvm.memset.p0.i64(ptr noundef nonnull align 8 dereferenceable(24) %0, i8 0, i64 24, i1 false)
  %4 = load i64, ptr @_ZZN14MergeCandidateC1EbE6serial, align 8
  %5 = add i64 %4, 2
  store i64 %5, ptr @_ZZN14MergeCandidateC1EbE6serial, align 8
  %6 = or i64 %5, 1
  %7 = getelementptr inbounds i8, ptr %0, i64 24
  store i64 %6, ptr %7, align 8
  %8 = getelementptr inbounds i8, ptr %0, i64 40
  store ptr %1, ptr %8, align 8
  %9 = getelementptr inbounds i8, ptr %0, i64 48
  store ptr %2, ptr %9, align 8
  %10 = getelementptr inbounds i8, ptr %0, i64 56
  %11 = getelementptr inbounds i8, ptr %0, i64 72
  %12 = getelementptr inbounds i8, ptr %1, i64 108
  tail call void @llvm.memset.p0.i64(ptr noundef nonnull align 8 dereferenceable(32) %10, i8 0, i64 32, i1 false)
  %13 = load i32, ptr %12, align 4
  %14 = getelementptr inbounds i8, ptr %2, i64 108
  %15 = load i32, ptr %14, align 4
  %.not = icmp ugt i32 %13, %15
  br i1 %.not, label %20, label %16

16:                                               ; preds = %3
  %17 = tail call noundef nonnull align 8 dereferenceable(112) ptr @_ZN7V3Error19v3errorPrepFileLineB5cxx11E11V3ErrorCodePKcib(i8 4, ptr noundef nonnull @.str, i32 noundef 666, i1 noundef zeroext true)
  %18 = tail call noundef nonnull align 8 dereferenceable(112) ptr @_ZN7V3Error10v3errorStrB5cxx11Ev()
  %19 = tail call noundef nonnull align 8 dereferenceable(8) ptr @_ZStlsISt11char_traitsIcEERSt13basic_ostreamIcT_ES5_PKc(ptr noundef nonnull align 8 dereferenceable(8) %18, ptr noundef nonnull @.str.1)
  tail call void @_Z15v3errorEndFatalRNSt7__cxx1119basic_ostringstreamIcSt11char_traitsIcESaIcEEE(ptr noundef nonnull align 8 dereferenceable(112) %19) #26
  unreachable

20:                                               ; preds = %3
  %21 = getelementptr inbounds i8, ptr %1, i64 240
  %22 = getelementptr inbounds i8, ptr %1, i64 248
  %23 = load ptr, ptr %22, align 8
  %24 = getelementptr inbounds i8, ptr %0, i64 64
  store ptr %23, ptr %24, align 8
  %.not.i = icmp eq ptr %23, null
  br i1 %.not.i, label %27, label %25

25:                                               ; preds = %20
  %26 = getelementptr inbounds i8, ptr %23, i64 56
  store ptr %0, ptr %26, align 8
  br label %27

27:                                               ; preds = %25, %20
  store ptr %0, ptr %22, align 8
  %28 = load ptr, ptr %21, align 8
  %.not8.i = icmp eq ptr %28, null
  br i1 %.not8.i, label %29, label %_ZN6V3ListI9SiblingMCXadL_ZNS0_6aLinksEvEES0_E8linkBackEPKS0_.exit

29:                                               ; preds = %27
  store ptr %0, ptr %21, align 8
  br label %_ZN6V3ListI9SiblingMCXadL_ZNS0_6aLinksEvEES0_E8linkBackEPKS0_.exit

_ZN6V3ListI9SiblingMCXadL_ZNS0_6aLinksEvEES0_E8linkBackEPKS0_.exit: ; preds = %29, %27
  %30 = load ptr, ptr %9, align 8
  %31 = getelementptr inbounds i8, ptr %30, i64 256
  store ptr null, ptr %11, align 8
  %32 = getelementptr inbounds i8, ptr %30, i64 264
  %33 = load ptr, ptr %32, align 8
  %34 = getelementptr inbounds i8, ptr %0, i64 80
  store ptr %33, ptr %34, align 8
  %.not.i6 = icmp eq ptr %33, null
  br i1 %.not.i6, label %37, label %35

35:                                               ; preds = %_ZN6V3ListI9SiblingMCXadL_ZNS0_6aLinksEvEES0_E8linkBackEPKS0_.exit
  %36 = getelementptr inbounds i8, ptr %33, i64 72
  store ptr %0, ptr %36, align 8
  br label %37

37:                                               ; preds = %35, %_ZN6V3ListI9SiblingMCXadL_ZNS0_6aLinksEvEES0_E8linkBackEPKS0_.exit
  store ptr %0, ptr %32, align 8
  %38 = load ptr, ptr %31, align 8
  %.not8.i7 = icmp eq ptr %38, null
  br i1 %.not8.i7, label %39, label %_ZN6V3ListI9SiblingMCXadL_ZNS0_6bLinksEvEES0_E8linkBackEPKS0_.exit

39:                                               ; preds = %37
  store ptr %0, ptr %31, align 8
  br label %_ZN6V3ListI9SiblingMCXadL_ZNS0_6bLinksEvEES0_E8linkBackEPKS0_.exit

_ZN6V3ListI9SiblingMCXadL_ZNS0_6bLinksEvEES0_E8linkBackEPKS0_.exit: ; preds = %39, %37
  ret void
}